target datalayout = "e-m:e-p270:32:32-p271:32:32-p272:64:64-i64:64-i128:128-f80:128-n8:16:32:64-S128"
target triple = "x86_64-pc-linux-gnu"

@_maxgroups = internal global i32 -1, align 4

; Function Attrs: nounwind sspstrong uwtable
define internal i32 @get_sc_ngroups_max() #0 {
  %1 = call i64 @sysconf(i32 noundef 3) #27
  %2 = trunc i64 %1 to i32
  ret i32 %2
}

; Function Attrs: inlinehint nounwind sspstrong willreturn memory(none) uwtable
define internal i64 @RB_INT2FIX(i64 noundef %0) #4 {
  %2 = alloca i64, align 8
  %3 = alloca i64, align 8
  %4 = alloca i64, align 8
  %5 = alloca i64, align 8
  %6 = alloca i64, align 8
  %7 = alloca i64, align 8
  store i64 %0, ptr %2, align 8, !tbaa !35
  call void @llvm.lifetime.start.p0(i64 8, ptr %3) #27
  %8 = load i64, ptr %2, align 8, !tbaa !35
  store i64 %8, ptr %3, align 8, !tbaa !35
  call void @llvm.lifetime.start.p0(i64 8, ptr %4) #27
  %9 = load i64, ptr %3, align 8, !tbaa !35
  %10 = shl i64 %9, 1
  %11 = add i64 %10, 1
  store i64 %11, ptr %4, align 8, !tbaa !35
  call void @llvm.lifetime.start.p0(i64 8, ptr %5) #27
  %12 = load i64, ptr %4, align 8, !tbaa !35
  store i64 %12, ptr %5, align 8, !tbaa !35
  call void @llvm.lifetime.start.p0(i64 8, ptr %6) #27
  %13 = load i64, ptr %5, align 8, !tbaa !35
  store i64 %13, ptr %6, align 8, !tbaa !35
  call void @llvm.lifetime.start.p0(i64 8, ptr %7) #27
  %14 = load i64, ptr %6, align 8, !tbaa !35
  store i64 %14, ptr %7, align 8, !tbaa !35
  %15 = load i64, ptr %7, align 8, !tbaa !35
  call void @llvm.lifetime.end.p0(i64 8, ptr %7) #27
  call void @llvm.lifetime.end.p0(i64 8, ptr %6) #27
  call void @llvm.lifetime.end.p0(i64 8, ptr %5) #27
  call void @llvm.lifetime.end.p0(i64 8, ptr %4) #27
  call void @llvm.lifetime.end.p0(i64 8, ptr %3) #27
  ret i64 %15
}

; Function Attrs: nounwind sspstrong uwtable
define internal i32 @maxgroups() #0 {
  %1 = load i32, ptr @_maxgroups, align 4, !tbaa !34
  %2 = icmp slt i32 %1, 0
  br i1 %2, label %3, label %9

3:                                                ; preds = %0
  %4 = call i32 @get_sc_ngroups_max()
  store i32 %4, ptr @_maxgroups, align 4, !tbaa !34
  %5 = load i32, ptr @_maxgroups, align 4, !tbaa !34
  %6 = icmp slt i32 %5, 0
  br i1 %6, label %7, label %8

7:                                                ; preds = %3
  store i32 65536, ptr @_maxgroups, align 4, !tbaa !34
  br label %8

8:                                                ; preds = %7, %3
  br label %9

9:                                                ; preds = %8, %0
  %10 = load i32, ptr @_maxgroups, align 4, !tbaa !34
  ret i32 %10
}

; Function Attrs: nounwind sspstrong uwtable
define internal i64 @proc_getmaxgroups(i64 noundef %0) #0 {
  %2 = alloca i64, align 8
  store i64 %0, ptr %2, align 8, !tbaa !35
  %3 = call i32 @maxgroups()
  %4 = sext i32 %3 to i64
  %5 = call i64 @RB_INT2FIX(i64 noundef %4) #28
  ret i64 %5
}