; Function Attrs: nounwind sspstrong uwtable
define internal range(i64 1, 0) i64 @proc_getmaxgroups(i64 %0) #1 {
  %2 = load i32, ptr @_maxgroups, align 4, !tbaa !60
  %3 = icmp slt i32 %2, 0
  br i1 %3, label %4, label %maxgroups.exit

4:                                                ; preds = %1
  %5 = tail call i64 @sysconf(i32 noundef 3) #27
  %6 = trunc i64 %5 to i32
  %7 = icmp slt i32 %6, 0
  %spec.store.select.i = select i1 %7, i32 65536, i32 %6
  store i32 %spec.store.select.i, ptr @_maxgroups, align 4
  br label %maxgroups.exit

maxgroups.exit:                                   ; preds = %1, %4
  %8 = phi i32 [ %spec.store.select.i, %4 ], [ %2, %1 ]
  %9 = sext i32 %8 to i64
  %10 = shl nsw i64 %9, 1
  %11 = or disjoint i64 %10, 1
  ret i64 %11
}